#include <math.h>
#include <stdio.h>
#include <stdlib.h>
#include <string.h>


int main()
{
	int i,j,n,a[100];
	double x[100],s[100],x0[100],sum[100]={0},sum2[100]={0};
	scanf("%d",&n);
	for(i=0;i<n;i++)
	{
		scanf("%d",&a[i]);
		
        for(j=0;j<a[i];j++)
		{
			scanf("%lf",&x[j]);
	     	sum[i]=sum[i]+x[j];
		}
		x0[i]=sum[i]/a[i];
		for(j=0;j<a[i];j++)
		{
			sum2[i]=sum2[i]+(x[j]-x0[i])*(x[j]-x0[i]);
		}
		s[i]=sqrt(sum2[i]/a[i]);
		
		
	}
	for(i=0;i<n;i++)
	{
		printf("%.5f\n",s[i]);
	}
	return 0;
}
	


